target datalayout = "e-m:e-p270:32:32-p271:32:32-p272:64:64-i64:64-i128:128-f80:128-n8:16:32:64-S128"
target triple = "x86_64-unknown-linux-gnu"

%"class.std::vector" = type { %"struct.std::_Vector_base" }
%"struct.std::_Vector_base" = type { %"struct.std::_Vector_base<double, std::allocator<double>>::_Vector_impl" }
%"struct.std::_Vector_base<double, std::allocator<double>>::_Vector_impl" = type { %"struct.std::_Vector_base<double, std::allocator<double>>::_Vector_impl_data" }
%"struct.std::_Vector_base<double, std::allocator<double>>::_Vector_impl_data" = type { ptr, ptr, ptr }
%"class.QuantLib::Matrix" = type { %"class.std::unique_ptr", i64, i64 }
%"class.std::unique_ptr" = type { %"struct.std::__uniq_ptr_data" }
%"struct.std::__uniq_ptr_data" = type { %"class.std::__uniq_ptr_impl" }
%"class.std::__uniq_ptr_impl" = type { %"class.std::tuple" }
%"class.std::tuple" = type { %"struct.std::_Tuple_impl" }
%"struct.std::_Tuple_impl" = type { %"struct.std::_Head_base.1" }
%"struct.std::_Head_base.1" = type { ptr }
%"class.QuantLib::PolynomialFunction" = type { i64, %"class.std::vector", %"class.std::vector", %"class.std::vector", double, %"class.QuantLib::Matrix" }

; Function Attrs: mustprogress nounwind uwtable
define linkonce_odr noundef nonnull align 8 dereferenceable(8) ptr @_ZNKSt6vectorIdSaIdEEixEm(ptr noundef nonnull align 8 dereferenceable(24) %this, i64 noundef %__n) #1 comdat align 2 {
entry:
  %this.addr = alloca ptr, align 8
  %__n.addr = alloca i64, align 8
  store ptr %this, ptr %this.addr, align 8, !tbaa !3
  store i64 %__n, ptr %__n.addr, align 8, !tbaa !23
  %this1 = load ptr, ptr %this.addr, align 8
  %_M_impl = getelementptr inbounds nuw %"struct.std::_Vector_base", ptr %this1, i32 0, i32 0
  %_M_start = getelementptr inbounds nuw %"struct.std::_Vector_base<double, std::allocator<double>>::_Vector_impl_data", ptr %_M_impl, i32 0, i32 0
  %0 = load ptr, ptr %_M_start, align 8, !tbaa !32
  %1 = load i64, ptr %__n.addr, align 8, !tbaa !23
  %add.ptr = getelementptr inbounds nuw double, ptr %0, i64 %1
  ret ptr %add.ptr
}

; Function Attrs: mustprogress nounwind uwtable
define noundef double @_ZNK8QuantLib18PolynomialFunction9primitiveEd(ptr noundef nonnull align 8 dereferenceable(112) %this, double noundef %t) #1 align 2 {
entry:
  %this.addr = alloca ptr, align 8
  %t.addr = alloca double, align 8
  %result = alloca double, align 8
  %tPower = alloca double, align 8
  %i = alloca i64, align 8
  store ptr %this, ptr %this.addr, align 8, !tbaa !3
  store double %t, ptr %t.addr, align 8, !tbaa !24
  %this1 = load ptr, ptr %this.addr, align 8
  call void @llvm.lifetime.start.p0(i64 8, ptr %result) #16
  %K_ = getelementptr inbounds nuw %"class.QuantLib::PolynomialFunction", ptr %this1, i32 0, i32 4
  %0 = load double, ptr %K_, align 8, !tbaa !22
  store double %0, ptr %result, align 8, !tbaa !24
  call void @llvm.lifetime.start.p0(i64 8, ptr %tPower) #16
  %1 = load double, ptr %t.addr, align 8, !tbaa !24
  store double %1, ptr %tPower, align 8, !tbaa !24
  call void @llvm.lifetime.start.p0(i64 8, ptr %i) #16
  store i64 0, ptr %i, align 8, !tbaa !23
  br label %for.cond

for.cond:                                         ; preds = %for.inc, %entry
  %2 = load i64, ptr %i, align 8, !tbaa !23
  %order_ = getelementptr inbounds nuw %"class.QuantLib::PolynomialFunction", ptr %this1, i32 0, i32 0
  %3 = load i64, ptr %order_, align 8, !tbaa !7
  %cmp = icmp ult i64 %2, %3
  br i1 %cmp, label %for.body, label %for.cond.cleanup

for.cond.cleanup:                                 ; preds = %for.cond
  call void @llvm.lifetime.end.p0(i64 8, ptr %i) #16
  br label %for.end

for.body:                                         ; preds = %for.cond
  %prC_ = getelementptr inbounds nuw %"class.QuantLib::PolynomialFunction", ptr %this1, i32 0, i32 3
  %4 = load i64, ptr %i, align 8, !tbaa !23
  %call = call noundef nonnull align 8 dereferenceable(8) ptr @_ZNKSt6vectorIdSaIdEEixEm(ptr noundef nonnull align 8 dereferenceable(24) %prC_, i64 noundef %4) #16
  %5 = load double, ptr %call, align 8, !tbaa !24
  %6 = load double, ptr %tPower, align 8, !tbaa !24
  %7 = load double, ptr %result, align 8, !tbaa !24
  %8 = call double @llvm.fmuladd.f64(double %5, double %6, double %7)
  store double %8, ptr %result, align 8, !tbaa !24
  %9 = load double, ptr %t.addr, align 8, !tbaa !24
  %10 = load double, ptr %tPower, align 8, !tbaa !24
  %mul = fmul double %10, %9
  store double %mul, ptr %tPower, align 8, !tbaa !24
  br label %for.inc

for.inc:                                          ; preds = %for.body
  %11 = load i64, ptr %i, align 8, !tbaa !23
  %inc = add i64 %11, 1
  store i64 %inc, ptr %i, align 8, !tbaa !23
  br label %for.cond, !llvm.loop !38

for.end:                                          ; preds = %for.cond.cleanup
  %12 = load double, ptr %result, align 8, !tbaa !24
  call void @llvm.lifetime.end.p0(i64 8, ptr %tPower) #16
  call void @llvm.lifetime.end.p0(i64 8, ptr %result) #16
  ret double %12
}

; Function Attrs: mustprogress nounwind uwtable
define noundef double @_ZNK8QuantLib18PolynomialFunction16definiteIntegralEdd(ptr noundef nonnull align 8 dereferenceable(112) %this, double noundef %t1, double noundef %t2) #1 align 2 {
entry:
  %this.addr = alloca ptr, align 8
  %t1.addr = alloca double, align 8
  %t2.addr = alloca double, align 8
  store ptr %this, ptr %this.addr, align 8, !tbaa !3
  store double %t1, ptr %t1.addr, align 8, !tbaa !24
  store double %t2, ptr %t2.addr, align 8, !tbaa !24
  %this1 = load ptr, ptr %this.addr, align 8
  %0 = load double, ptr %t2.addr, align 8, !tbaa !24
  %call = call noundef double @_ZNK8QuantLib18PolynomialFunction9primitiveEd(ptr noundef nonnull align 8 dereferenceable(112) %this1, double noundef %0)
  %1 = load double, ptr %t1.addr, align 8, !tbaa !24
  %call2 = call noundef double @_ZNK8QuantLib18PolynomialFunction9primitiveEd(ptr noundef nonnull align 8 dereferenceable(112) %this1, double noundef %1)
  %sub = fsub double %call, %call2
  ret double %sub
}