; Function Attrs: mustprogress nofree norecurse nosync nounwind willreturn memory(read, inaccessiblemem: none) uwtable
define noundef double @_ZNK8QuantLib18PolynomialFunction16definiteIntegralEdd(ptr nocapture noundef nonnull readonly align 8 dereferenceable(112) %this, double noundef %t1, double noundef %t2) local_unnamed_addr #6 align 2 {
entry:
  %K_.i = getelementptr inbounds nuw i8, ptr %this, i64 80
  %0 = load double, ptr %K_.i, align 8, !tbaa !31
  %1 = load i64, ptr %this, align 8, !tbaa !13
  %cmp6.not.i = icmp eq i64 %1, 0
  br i1 %cmp6.not.i, label %_ZNK8QuantLib18PolynomialFunction9primitiveEd.exit14, label %for.body.lr.ph.i

for.body.lr.ph.i:                                 ; preds = %entry
  %prC_.i = getelementptr inbounds nuw i8, ptr %this, i64 56
  %2 = load ptr, ptr %prC_.i, align 8, !tbaa !28
  br label %for.body.i

for.body.i:                                       ; preds = %for.body.i, %for.body.lr.ph.i
  %i.09.i = phi i64 [ 0, %for.body.lr.ph.i ], [ %inc.i, %for.body.i ]
  %tPower.08.i = phi double [ %t2, %for.body.lr.ph.i ], [ %mul.i, %for.body.i ]
  %result.07.i = phi double [ %0, %for.body.lr.ph.i ], [ %4, %for.body.i ]
  %add.ptr.i.i = getelementptr inbounds nuw double, ptr %2, i64 %i.09.i
  %3 = load double, ptr %add.ptr.i.i, align 8, !tbaa !27
  %4 = tail call double @llvm.fmuladd.f64(double %3, double %tPower.08.i, double %result.07.i)
  %mul.i = fmul double %t2, %tPower.08.i
  %inc.i = add nuw i64 %i.09.i, 1
  %exitcond.not.i = icmp eq i64 %inc.i, %1
  br i1 %exitcond.not.i, label %for.body.i5, label %for.body.i, !llvm.loop !43

for.body.i5:                                      ; preds = %for.body.i, %for.body.i5
  %i.09.i6 = phi i64 [ %inc.i11, %for.body.i5 ], [ 0, %for.body.i ]
  %tPower.08.i7 = phi double [ %mul.i10, %for.body.i5 ], [ %t1, %for.body.i ]
  %result.07.i8 = phi double [ %6, %for.body.i5 ], [ %0, %for.body.i ]
  %add.ptr.i.i9 = getelementptr inbounds nuw double, ptr %2, i64 %i.09.i6
  %5 = load double, ptr %add.ptr.i.i9, align 8, !tbaa !27
  %6 = tail call double @llvm.fmuladd.f64(double %5, double %tPower.08.i7, double %result.07.i8)
  %mul.i10 = fmul double %t1, %tPower.08.i7
  %inc.i11 = add nuw i64 %i.09.i6, 1
  %exitcond.not.i12 = icmp eq i64 %inc.i11, %1
  br i1 %exitcond.not.i12, label %_ZNK8QuantLib18PolynomialFunction9primitiveEd.exit14, label %for.body.i5, !llvm.loop !43

_ZNK8QuantLib18PolynomialFunction9primitiveEd.exit14: ; preds = %for.body.i5, %entry
  %result.0.lcssa.i16 = phi double [ %0, %entry ], [ %4, %for.body.i5 ]
  %result.0.lcssa.i13 = phi double [ %0, %entry ], [ %6, %for.body.i5 ]
  %sub = fsub double %result.0.lcssa.i16, %result.0.lcssa.i13
  ret double %sub
}